; Function Attrs: mustprogress nounwind uwtable
define void @_ZN5Timer3EndEv(ptr noundef nonnull align 8 captures(none) dereferenceable(72) %0) local_unnamed_addr #4 align 2 {
  %2 = tail call i64 @_ZNSt6chrono3_V212steady_clock3nowEv() #9
  %3 = tail call i64 @clock() #9
  %4 = getelementptr inbounds nuw i8, ptr %0, i64 56
  %.sroa.0.0.copyload.i2.i = load i64, ptr %4, align 8
  %5 = sub nsw i64 %2, %.sroa.0.0.copyload.i2.i
  %6 = sitofp i64 %5 to double
  %7 = fdiv double %6, 1.000000e+03
  %8 = fptosi double %7 to i32
  %9 = getelementptr inbounds nuw i8, ptr %0, i64 32
  %10 = load i32, ptr %9, align 8
  %11 = add nsw i32 %10, 1
  store i32 %11, ptr %9, align 8
  %12 = sext i32 %8 to i64
  %13 = getelementptr inbounds nuw i8, ptr %0, i64 40
  %14 = load i64, ptr %13, align 8
  %15 = add nsw i64 %14, %12
  store i64 %15, ptr %13, align 8
  %16 = getelementptr inbounds nuw i8, ptr %0, i64 64
  %17 = load i64, ptr %16, align 8
  %18 = sub i64 %3, %17
  %19 = getelementptr inbounds nuw i8, ptr %0, i64 48
  %20 = load i64, ptr %19, align 8
  %21 = add nsw i64 %18, %20
  store i64 %21, ptr %19, align 8
  ret void
}